target datalayout = "e-m:e-p270:32:32-p271:32:32-p272:64:64-i64:64-i128:128-f80:128-n8:16:32:64-S128"
target triple = "x86_64-pc-linux-gnu"

%struct.cli_ac_patt = type { ptr, ptr, [3 x i16], [3 x i16], i32, i32, i32, [3 x i32], [2 x i16], ptr, ptr, [2 x i16], [2 x i16], i16, i16, i16, i16, ptr, i16, i16, [4 x i32], i32, i32, i32, i8, i8 }
%struct.cli_ac_list = type { ptr, %union.anon.1, ptr }
%union.anon.1 = type { ptr }

; Function Attrs: nounwind uwtable
define internal i32 @sort_list_fn(ptr noundef %0, ptr noundef %1) #0 {
  %3 = alloca i32, align 4
  %4 = alloca ptr, align 8
  %5 = alloca ptr, align 8
  %6 = alloca ptr, align 8
  %7 = alloca ptr, align 8
  %8 = alloca ptr, align 8
  %9 = alloca ptr, align 8
  %10 = alloca i32, align 4
  %11 = alloca i32, align 4
  store ptr %0, ptr %4, align 8, !tbaa !142
  store ptr %1, ptr %5, align 8, !tbaa !142
  call void @llvm.lifetime.start.p0(i64 8, ptr %6) #16
  %12 = load ptr, ptr %4, align 8, !tbaa !142
  %13 = load ptr, ptr %12, align 8, !tbaa !54
  %14 = getelementptr inbounds nuw %struct.cli_ac_list, ptr %13, i32 0, i32 1
  %15 = load ptr, ptr %14, align 8, !tbaa !55
  store ptr %15, ptr %6, align 8, !tbaa !42
  call void @llvm.lifetime.start.p0(i64 8, ptr %7) #16
  %16 = load ptr, ptr %5, align 8, !tbaa !142
  %17 = load ptr, ptr %16, align 8, !tbaa !54
  %18 = getelementptr inbounds nuw %struct.cli_ac_list, ptr %17, i32 0, i32 1
  %19 = load ptr, ptr %18, align 8, !tbaa !55
  store ptr %19, ptr %7, align 8, !tbaa !42
  call void @llvm.lifetime.start.p0(i64 8, ptr %8) #16
  %20 = load ptr, ptr %4, align 8, !tbaa !142
  %21 = load ptr, ptr %20, align 8, !tbaa !54
  %22 = getelementptr inbounds nuw %struct.cli_ac_list, ptr %21, i32 0, i32 0
  %23 = load ptr, ptr %22, align 8, !tbaa !151
  store ptr %23, ptr %8, align 8, !tbaa !8
  call void @llvm.lifetime.start.p0(i64 8, ptr %9) #16
  %24 = load ptr, ptr %5, align 8, !tbaa !142
  %25 = load ptr, ptr %24, align 8, !tbaa !54
  %26 = getelementptr inbounds nuw %struct.cli_ac_list, ptr %25, i32 0, i32 0
  %27 = load ptr, ptr %26, align 8, !tbaa !151
  store ptr %27, ptr %9, align 8, !tbaa !8
  call void @llvm.lifetime.start.p0(i64 4, ptr %10) #16
  br label %28

28:                                               ; preds = %2
  %29 = load ptr, ptr %6, align 8, !tbaa !42
  %30 = load ptr, ptr %7, align 8, !tbaa !42
  %31 = icmp ult ptr %29, %30
  br i1 %31, label %32, label %33

32:                                               ; preds = %28
  store i32 -1, ptr %3, align 4
  store i32 1, ptr %11, align 4
  br label %87

33:                                               ; preds = %28
  %34 = load ptr, ptr %6, align 8, !tbaa !42
  %35 = load ptr, ptr %7, align 8, !tbaa !42
  %36 = icmp ugt ptr %34, %35
  br i1 %36, label %37, label %38

37:                                               ; preds = %33
  store i32 1, ptr %3, align 4
  store i32 1, ptr %11, align 4
  br label %87

38:                                               ; preds = %33
  br label %39

39:                                               ; preds = %38
  br label %40

40:                                               ; preds = %39
  %41 = load ptr, ptr %8, align 8, !tbaa !8
  %42 = load ptr, ptr %9, align 8, !tbaa !8
  %43 = call i32 @patt_cmp_fn(ptr noundef %41, ptr noundef %42)
  store i32 %43, ptr %10, align 4, !tbaa !49
  %44 = load i32, ptr %10, align 4, !tbaa !49
  %45 = icmp ne i32 %44, 0
  br i1 %45, label %46, label %48

46:                                               ; preds = %40
  %47 = load i32, ptr %10, align 4, !tbaa !49
  store i32 %47, ptr %3, align 4
  store i32 1, ptr %11, align 4
  br label %87

48:                                               ; preds = %40
  br label %49

49:                                               ; preds = %48
  %50 = load ptr, ptr %8, align 8, !tbaa !8
  %51 = getelementptr inbounds nuw %struct.cli_ac_patt, ptr %50, i32 0, i32 14
  %52 = load i16, ptr %51, align 2, !tbaa !153
  %53 = zext i16 %52 to i32
  %54 = load ptr, ptr %9, align 8, !tbaa !8
  %55 = getelementptr inbounds nuw %struct.cli_ac_patt, ptr %54, i32 0, i32 14
  %56 = load i16, ptr %55, align 2, !tbaa !153
  %57 = zext i16 %56 to i32
  %58 = icmp slt i32 %53, %57
  br i1 %58, label %59, label %60

59:                                               ; preds = %49
  store i32 -1, ptr %3, align 4
  store i32 1, ptr %11, align 4
  br label %87

60:                                               ; preds = %49
  %61 = load ptr, ptr %8, align 8, !tbaa !8
  %62 = getelementptr inbounds nuw %struct.cli_ac_patt, ptr %61, i32 0, i32 14
  %63 = load i16, ptr %62, align 2, !tbaa !153
  %64 = zext i16 %63 to i32
  %65 = load ptr, ptr %9, align 8, !tbaa !8
  %66 = getelementptr inbounds nuw %struct.cli_ac_patt, ptr %65, i32 0, i32 14
  %67 = load i16, ptr %66, align 2, !tbaa !153
  %68 = zext i16 %67 to i32
  %69 = icmp sgt i32 %64, %68
  br i1 %69, label %70, label %71

70:                                               ; preds = %60
  store i32 1, ptr %3, align 4
  store i32 1, ptr %11, align 4
  br label %87

71:                                               ; preds = %60
  br label %72

72:                                               ; preds = %71
  br label %73

73:                                               ; preds = %72
  br label %74

74:                                               ; preds = %73
  %75 = load ptr, ptr %8, align 8, !tbaa !8
  %76 = load ptr, ptr %9, align 8, !tbaa !8
  %77 = icmp ult ptr %75, %76
  br i1 %77, label %78, label %79

78:                                               ; preds = %74
  store i32 -1, ptr %3, align 4
  store i32 1, ptr %11, align 4
  br label %87

79:                                               ; preds = %74
  %80 = load ptr, ptr %8, align 8, !tbaa !8
  %81 = load ptr, ptr %9, align 8, !tbaa !8
  %82 = icmp ugt ptr %80, %81
  br i1 %82, label %83, label %84

83:                                               ; preds = %79
  store i32 1, ptr %3, align 4
  store i32 1, ptr %11, align 4
  br label %87

84:                                               ; preds = %79
  br label %85

85:                                               ; preds = %84
  br label %86

86:                                               ; preds = %85
  store i32 0, ptr %3, align 4
  store i32 1, ptr %11, align 4
  br label %87

87:                                               ; preds = %86, %83, %78, %70, %59, %46, %37, %32
  call void @llvm.lifetime.end.p0(i64 4, ptr %10) #16
  call void @llvm.lifetime.end.p0(i64 8, ptr %9) #16
  call void @llvm.lifetime.end.p0(i64 8, ptr %8) #16
  call void @llvm.lifetime.end.p0(i64 8, ptr %7) #16
  call void @llvm.lifetime.end.p0(i64 8, ptr %6) #16
  %88 = load i32, ptr %3, align 4
  ret i32 %88
}