; Function Attrs: nofree nounwind memory(read, inaccessiblemem: none) uwtable
define internal i32 @sort_list_fn(ptr noundef readonly captures(none) %0, ptr noundef readonly captures(none) %1) #14 {
  %3 = load ptr, ptr %0, align 8, !tbaa !45
  %4 = getelementptr inbounds nuw i8, ptr %3, i64 8
  %5 = load ptr, ptr %4, align 8, !tbaa !42
  %6 = load ptr, ptr %1, align 8, !tbaa !45
  %7 = getelementptr inbounds nuw i8, ptr %6, i64 8
  %8 = load ptr, ptr %7, align 8, !tbaa !42
  %9 = load ptr, ptr %3, align 8, !tbaa !39
  %10 = load ptr, ptr %6, align 8, !tbaa !39
  %11 = icmp ult ptr %5, %8
  br i1 %11, label %28, label %12

12:                                               ; preds = %2
  %13 = icmp ugt ptr %5, %8
  br i1 %13, label %28, label %14

14:                                               ; preds = %12
  %15 = tail call fastcc i32 @patt_cmp_fn(ptr noundef %9, ptr noundef %10)
  %.not = icmp eq i32 %15, 0
  br i1 %.not, label %16, label %28

16:                                               ; preds = %14
  %17 = getelementptr inbounds nuw i8, ptr %9, i64 82
  %18 = load i16, ptr %17, align 2, !tbaa !135
  %19 = getelementptr inbounds nuw i8, ptr %10, i64 82
  %20 = load i16, ptr %19, align 2, !tbaa !135
  %21 = icmp ult i16 %18, %20
  br i1 %21, label %28, label %22

22:                                               ; preds = %16
  %23 = icmp ugt i16 %18, %20
  br i1 %23, label %28, label %24

24:                                               ; preds = %22
  %25 = icmp ult ptr %9, %10
  br i1 %25, label %28, label %26

26:                                               ; preds = %24
  %27 = icmp ugt ptr %9, %10
  %. = zext i1 %27 to i32
  br label %28

28:                                               ; preds = %26, %24, %22, %16, %14, %12, %2
  %.0 = phi i32 [ -1, %2 ], [ 1, %12 ], [ %15, %14 ], [ -1, %16 ], [ 1, %22 ], [ -1, %24 ], [ %., %26 ]
  ret i32 %.0
}